target datalayout = "e-m:e-p270:32:32-p271:32:32-p272:64:64-i64:64-i128:128-f80:128-n8:16:32:64-S128"
target triple = "x86_64-pc-linux-gnu"

%struct._zval_struct = type { %union._zend_value, %union.anon, %union.anon.2 }
%union._zend_value = type { i64 }
%union.anon = type { i32 }
%union.anon.2 = type { i32 }
%struct._zend_array = type { %struct._zend_refcounted_h, %union.anon.4, i32, %union.anon.6, i32, i32, i32, i32, i64, ptr }
%struct._zend_refcounted_h = type { i32, %union.anon.3 }
%union.anon.3 = type { i32 }
%union.anon.4 = type { i32 }
%union.anon.6 = type { ptr }
%struct._zend_resource = type { %struct._zend_refcounted_h, i64, i32, ptr }
%struct._zend_rsrc_list_dtors_entry = type { ptr, ptr, ptr, i32, i32 }

@list_destructors = internal global %struct._zend_array zeroinitializer, align 8

; Function Attrs: nounwind uwtable
define hidden void @plist_entry_destructor(ptr noundef %0) #0 {
  %2 = alloca ptr, align 8
  %3 = alloca ptr, align 8
  %4 = alloca i64, align 8
  %5 = alloca ptr, align 8
  %6 = alloca ptr, align 8
  %7 = alloca ptr, align 8
  %8 = alloca ptr, align 8
  store ptr %0, ptr %6, align 8
  %9 = load ptr, ptr %6, align 8
  %10 = getelementptr inbounds %struct._zval_struct, ptr %9, i32 0, i32 0
  %11 = load ptr, ptr %10, align 8
  store ptr %11, ptr %7, align 8
  %12 = load ptr, ptr %7, align 8
  %13 = getelementptr inbounds %struct._zend_resource, ptr %12, i32 0, i32 2
  %14 = load i32, ptr %13, align 8
  %15 = icmp sge i32 %14, 0
  br i1 %15, label %16, label %50

16:                                               ; preds = %1
  %17 = load ptr, ptr %7, align 8
  %18 = getelementptr inbounds %struct._zend_resource, ptr %17, i32 0, i32 2
  %19 = load i32, ptr %18, align 8
  %20 = sext i32 %19 to i64
  store ptr @list_destructors, ptr %3, align 8
  store i64 %20, ptr %4, align 8
  %21 = load ptr, ptr %3, align 8
  %22 = load i64, ptr %4, align 8
  %23 = call ptr @zend_hash_index_find(ptr noundef %21, i64 noundef %22) #11
  store ptr %23, ptr %5, align 8
  %24 = load ptr, ptr %5, align 8
  %25 = icmp ne ptr %24, null
  br i1 %25, label %26, label %32

26:                                               ; preds = %16
  %27 = load ptr, ptr %5, align 8
  %28 = load ptr, ptr %27, align 8
  %29 = icmp ne ptr %28, null
  call void @llvm.assume(i1 %29)
  %30 = load ptr, ptr %5, align 8
  %31 = load ptr, ptr %30, align 8
  store ptr %31, ptr %2, align 8
  br label %33

32:                                               ; preds = %16
  store ptr null, ptr %2, align 8
  br label %33

33:                                               ; preds = %32, %26
  %34 = load ptr, ptr %2, align 8
  store ptr %34, ptr %8, align 8
  %35 = load ptr, ptr %8, align 8
  %36 = icmp ne ptr %35, null
  br i1 %36, label %37, label %38

37:                                               ; preds = %33
  br label %38

38:                                               ; preds = %37, %33
  %39 = phi i1 [ false, %33 ], [ true, %37 ]
  call void @llvm.assume(i1 %39)
  %40 = load ptr, ptr %8, align 8
  %41 = getelementptr inbounds %struct._zend_rsrc_list_dtors_entry, ptr %40, i32 0, i32 1
  %42 = load ptr, ptr %41, align 8
  %43 = icmp ne ptr %42, null
  br i1 %43, label %44, label %49

44:                                               ; preds = %38
  %45 = load ptr, ptr %8, align 8
  %46 = getelementptr inbounds %struct._zend_rsrc_list_dtors_entry, ptr %45, i32 0, i32 1
  %47 = load ptr, ptr %46, align 8
  %48 = load ptr, ptr %7, align 8
  call void %47(ptr noundef %48)
  br label %49

49:                                               ; preds = %44, %38
  br label %50

50:                                               ; preds = %49, %1
  %51 = load ptr, ptr %7, align 8
  call void @free(ptr noundef %51) #11
  ret void
}