; Function Attrs: nounwind uwtable
define hidden void @plist_entry_destructor(ptr nocapture noundef readonly %0) #0 {
  %2 = load ptr, ptr %0, align 8
  %3 = getelementptr inbounds i8, ptr %2, i64 16
  %4 = load i32, ptr %3, align 8
  %5 = icmp sgt i32 %4, -1
  br i1 %5, label %6, label %13

6:                                                ; preds = %1
  %7 = zext nneg i32 %4 to i64
  %8 = tail call ptr @zend_hash_index_find(ptr noundef nonnull @list_destructors, i64 noundef %7) #14
  %.not = icmp ne ptr %8, null
  tail call void @llvm.assume(i1 %.not)
  %9 = load ptr, ptr %8, align 8, !nonnull !4, !noundef !4
  %10 = getelementptr inbounds i8, ptr %9, i64 8
  %11 = load ptr, ptr %10, align 8
  %.not16 = icmp eq ptr %11, null
  br i1 %.not16, label %13, label %12

12:                                               ; preds = %6
  tail call void %11(ptr noundef nonnull %2) #14
  br label %13

13:                                               ; preds = %6, %12, %1
  tail call void @free(ptr noundef nonnull %2) #14
  ret void
}